target datalayout = "e-m:e-p270:32:32-p271:32:32-p272:64:64-i64:64-i128:128-f80:128-n8:16:32:64-S128"
target triple = "x86_64-pc-linux-gnu"

; Function Attrs: nounwind uwtable
define hidden void @CAST_ecb_encrypt(ptr noundef %0, ptr noundef %1, ptr noundef %2, i32 noundef %3) #0 {
  %5 = alloca ptr, align 8
  %6 = alloca ptr, align 8
  %7 = alloca ptr, align 8
  %8 = alloca i32, align 4
  %9 = alloca [2 x i32], align 4
  store ptr %0, ptr %5, align 8, !tbaa !6
  store ptr %1, ptr %6, align 8, !tbaa !6
  store ptr %2, ptr %7, align 8, !tbaa !11
  store i32 %3, ptr %8, align 4, !tbaa !13
  call void @llvm.lifetime.start.p0(i64 8, ptr %9) #2
  %10 = load ptr, ptr %5, align 8, !tbaa !6
  %11 = getelementptr inbounds nuw i8, ptr %10, i32 1
  store ptr %11, ptr %5, align 8, !tbaa !6
  %12 = load i8, ptr %10, align 1, !tbaa !15
  %13 = zext i8 %12 to i64
  %14 = shl i64 %13, 24
  %15 = trunc i64 %14 to i32
  %16 = getelementptr inbounds [2 x i32], ptr %9, i64 0, i64 0
  store i32 %15, ptr %16, align 4, !tbaa !13
  %17 = load ptr, ptr %5, align 8, !tbaa !6
  %18 = getelementptr inbounds nuw i8, ptr %17, i32 1
  store ptr %18, ptr %5, align 8, !tbaa !6
  %19 = load i8, ptr %17, align 1, !tbaa !15
  %20 = zext i8 %19 to i64
  %21 = shl i64 %20, 16
  %22 = getelementptr inbounds [2 x i32], ptr %9, i64 0, i64 0
  %23 = load i32, ptr %22, align 4, !tbaa !13
  %24 = zext i32 %23 to i64
  %25 = or i64 %24, %21
  %26 = trunc i64 %25 to i32
  store i32 %26, ptr %22, align 4, !tbaa !13
  %27 = load ptr, ptr %5, align 8, !tbaa !6
  %28 = getelementptr inbounds nuw i8, ptr %27, i32 1
  store ptr %28, ptr %5, align 8, !tbaa !6
  %29 = load i8, ptr %27, align 1, !tbaa !15
  %30 = zext i8 %29 to i64
  %31 = shl i64 %30, 8
  %32 = getelementptr inbounds [2 x i32], ptr %9, i64 0, i64 0
  %33 = load i32, ptr %32, align 4, !tbaa !13
  %34 = zext i32 %33 to i64
  %35 = or i64 %34, %31
  %36 = trunc i64 %35 to i32
  store i32 %36, ptr %32, align 4, !tbaa !13
  %37 = load ptr, ptr %5, align 8, !tbaa !6
  %38 = getelementptr inbounds nuw i8, ptr %37, i32 1
  store ptr %38, ptr %5, align 8, !tbaa !6
  %39 = load i8, ptr %37, align 1, !tbaa !15
  %40 = zext i8 %39 to i64
  %41 = getelementptr inbounds [2 x i32], ptr %9, i64 0, i64 0
  %42 = load i32, ptr %41, align 4, !tbaa !13
  %43 = zext i32 %42 to i64
  %44 = or i64 %43, %40
  %45 = trunc i64 %44 to i32
  store i32 %45, ptr %41, align 4, !tbaa !13
  %46 = load ptr, ptr %5, align 8, !tbaa !6
  %47 = getelementptr inbounds nuw i8, ptr %46, i32 1
  store ptr %47, ptr %5, align 8, !tbaa !6
  %48 = load i8, ptr %46, align 1, !tbaa !15
  %49 = zext i8 %48 to i64
  %50 = shl i64 %49, 24
  %51 = trunc i64 %50 to i32
  %52 = getelementptr inbounds [2 x i32], ptr %9, i64 0, i64 1
  store i32 %51, ptr %52, align 4, !tbaa !13
  %53 = load ptr, ptr %5, align 8, !tbaa !6
  %54 = getelementptr inbounds nuw i8, ptr %53, i32 1
  store ptr %54, ptr %5, align 8, !tbaa !6
  %55 = load i8, ptr %53, align 1, !tbaa !15
  %56 = zext i8 %55 to i64
  %57 = shl i64 %56, 16
  %58 = getelementptr inbounds [2 x i32], ptr %9, i64 0, i64 1
  %59 = load i32, ptr %58, align 4, !tbaa !13
  %60 = zext i32 %59 to i64
  %61 = or i64 %60, %57
  %62 = trunc i64 %61 to i32
  store i32 %62, ptr %58, align 4, !tbaa !13
  %63 = load ptr, ptr %5, align 8, !tbaa !6
  %64 = getelementptr inbounds nuw i8, ptr %63, i32 1
  store ptr %64, ptr %5, align 8, !tbaa !6
  %65 = load i8, ptr %63, align 1, !tbaa !15
  %66 = zext i8 %65 to i64
  %67 = shl i64 %66, 8
  %68 = getelementptr inbounds [2 x i32], ptr %9, i64 0, i64 1
  %69 = load i32, ptr %68, align 4, !tbaa !13
  %70 = zext i32 %69 to i64
  %71 = or i64 %70, %67
  %72 = trunc i64 %71 to i32
  store i32 %72, ptr %68, align 4, !tbaa !13
  %73 = load ptr, ptr %5, align 8, !tbaa !6
  %74 = getelementptr inbounds nuw i8, ptr %73, i32 1
  store ptr %74, ptr %5, align 8, !tbaa !6
  %75 = load i8, ptr %73, align 1, !tbaa !15
  %76 = zext i8 %75 to i64
  %77 = getelementptr inbounds [2 x i32], ptr %9, i64 0, i64 1
  %78 = load i32, ptr %77, align 4, !tbaa !13
  %79 = zext i32 %78 to i64
  %80 = or i64 %79, %76
  %81 = trunc i64 %80 to i32
  store i32 %81, ptr %77, align 4, !tbaa !13
  %82 = load i32, ptr %8, align 4, !tbaa !13
  %83 = icmp ne i32 %82, 0
  br i1 %83, label %84, label %87

84:                                               ; preds = %4
  %85 = getelementptr inbounds [2 x i32], ptr %9, i64 0, i64 0
  %86 = load ptr, ptr %7, align 8, !tbaa !11
  call void @CAST_encrypt(ptr noundef %85, ptr noundef %86)
  br label %90

87:                                               ; preds = %4
  %88 = getelementptr inbounds [2 x i32], ptr %9, i64 0, i64 0
  %89 = load ptr, ptr %7, align 8, !tbaa !11
  call void @CAST_decrypt(ptr noundef %88, ptr noundef %89)
  br label %90

90:                                               ; preds = %87, %84
  %91 = getelementptr inbounds [2 x i32], ptr %9, i64 0, i64 0
  %92 = load i32, ptr %91, align 4, !tbaa !13
  %93 = lshr i32 %92, 24
  %94 = and i32 %93, 255
  %95 = trunc i32 %94 to i8
  %96 = load ptr, ptr %6, align 8, !tbaa !6
  %97 = getelementptr inbounds nuw i8, ptr %96, i32 1
  store ptr %97, ptr %6, align 8, !tbaa !6
  store i8 %95, ptr %96, align 1, !tbaa !15
  %98 = getelementptr inbounds [2 x i32], ptr %9, i64 0, i64 0
  %99 = load i32, ptr %98, align 4, !tbaa !13
  %100 = lshr i32 %99, 16
  %101 = and i32 %100, 255
  %102 = trunc i32 %101 to i8
  %103 = load ptr, ptr %6, align 8, !tbaa !6
  %104 = getelementptr inbounds nuw i8, ptr %103, i32 1
  store ptr %104, ptr %6, align 8, !tbaa !6
  store i8 %102, ptr %103, align 1, !tbaa !15
  %105 = getelementptr inbounds [2 x i32], ptr %9, i64 0, i64 0
  %106 = load i32, ptr %105, align 4, !tbaa !13
  %107 = lshr i32 %106, 8
  %108 = and i32 %107, 255
  %109 = trunc i32 %108 to i8
  %110 = load ptr, ptr %6, align 8, !tbaa !6
  %111 = getelementptr inbounds nuw i8, ptr %110, i32 1
  store ptr %111, ptr %6, align 8, !tbaa !6
  store i8 %109, ptr %110, align 1, !tbaa !15
  %112 = getelementptr inbounds [2 x i32], ptr %9, i64 0, i64 0
  %113 = load i32, ptr %112, align 4, !tbaa !13
  %114 = and i32 %113, 255
  %115 = trunc i32 %114 to i8
  %116 = load ptr, ptr %6, align 8, !tbaa !6
  %117 = getelementptr inbounds nuw i8, ptr %116, i32 1
  store ptr %117, ptr %6, align 8, !tbaa !6
  store i8 %115, ptr %116, align 1, !tbaa !15
  %118 = getelementptr inbounds [2 x i32], ptr %9, i64 0, i64 1
  %119 = load i32, ptr %118, align 4, !tbaa !13
  %120 = lshr i32 %119, 24
  %121 = and i32 %120, 255
  %122 = trunc i32 %121 to i8
  %123 = load ptr, ptr %6, align 8, !tbaa !6
  %124 = getelementptr inbounds nuw i8, ptr %123, i32 1
  store ptr %124, ptr %6, align 8, !tbaa !6
  store i8 %122, ptr %123, align 1, !tbaa !15
  %125 = getelementptr inbounds [2 x i32], ptr %9, i64 0, i64 1
  %126 = load i32, ptr %125, align 4, !tbaa !13
  %127 = lshr i32 %126, 16
  %128 = and i32 %127, 255
  %129 = trunc i32 %128 to i8
  %130 = load ptr, ptr %6, align 8, !tbaa !6
  %131 = getelementptr inbounds nuw i8, ptr %130, i32 1
  store ptr %131, ptr %6, align 8, !tbaa !6
  store i8 %129, ptr %130, align 1, !tbaa !15
  %132 = getelementptr inbounds [2 x i32], ptr %9, i64 0, i64 1
  %133 = load i32, ptr %132, align 4, !tbaa !13
  %134 = lshr i32 %133, 8
  %135 = and i32 %134, 255
  %136 = trunc i32 %135 to i8
  %137 = load ptr, ptr %6, align 8, !tbaa !6
  %138 = getelementptr inbounds nuw i8, ptr %137, i32 1
  store ptr %138, ptr %6, align 8, !tbaa !6
  store i8 %136, ptr %137, align 1, !tbaa !15
  %139 = getelementptr inbounds [2 x i32], ptr %9, i64 0, i64 1
  %140 = load i32, ptr %139, align 4, !tbaa !13
  %141 = and i32 %140, 255
  %142 = trunc i32 %141 to i8
  %143 = load ptr, ptr %6, align 8, !tbaa !6
  %144 = getelementptr inbounds nuw i8, ptr %143, i32 1
  store ptr %144, ptr %6, align 8, !tbaa !6
  store i8 %142, ptr %143, align 1, !tbaa !15
  call void @llvm.lifetime.end.p0(i64 8, ptr %9) #2
  ret void
}